target datalayout = "e-m:e-p270:32:32-p271:32:32-p272:64:64-i64:64-i128:128-f80:128-n8:16:32:64-S128"
target triple = "x86_64-pc-linux-gnu"

%"struct.std::atomic" = type { %"struct.std::__atomic_base" }
%"struct.std::__atomic_base" = type { i32 }
%"struct.std::atomic.9" = type { %"struct.std::__atomic_base.10" }
%"struct.std::__atomic_base.10" = type { i64 }
%"struct.std::atomic.46" = type { %"struct.std::__atomic_base.47" }
%"struct.std::__atomic_base.47" = type { i32 }
%"struct.std::atomic.50" = type { %"struct.std::__atomic_base.51" }
%"struct.std::__atomic_base.51" = type { i8 }
%"struct.folly::RequestContext::State" = type <{ %"class.folly::hazptr_obj_cohort", %"struct.std::atomic.52", %"struct.std::atomic.9", %"class.folly::SharedMutexImpl", [4 x i8] }>
%"class.folly::hazptr_obj_cohort" = type { %"class.folly::hazptr_detail::shared_head_tail_list", %"struct.std::atomic.46", %"struct.std::atomic.50", %"struct.std::atomic.50", %"struct.std::atomic.48" }
%"class.folly::hazptr_detail::shared_head_tail_list" = type { %"struct.std::atomic.48", %"struct.std::atomic.48" }
%"struct.std::atomic.48" = type { %"struct.std::__atomic_base.49" }
%"struct.std::__atomic_base.49" = type { ptr }
%"struct.std::atomic.52" = type { %"struct.std::__atomic_base.53" }
%"struct.std::__atomic_base.53" = type { ptr }
%"class.folly::SharedMutexImpl" = type { %"struct.std::atomic" }

; Function Attrs: mustprogress nounwind uwtable
define linkonce_odr void @_ZNSt13__atomic_baseIjEC2Ej(ptr noundef nonnull align 4 dereferenceable(4) %0, i32 noundef %1) unnamed_addr #2 comdat align 2 {
  %3 = alloca ptr, align 8
  %4 = alloca i32, align 4
  store ptr %0, ptr %3, align 8, !tbaa !63
  store i32 %1, ptr %4, align 4, !tbaa !25
  %5 = load ptr, ptr %3, align 8
  %6 = getelementptr inbounds nuw %"struct.std::__atomic_base", ptr %5, i32 0, i32 0
  %7 = load i32, ptr %4, align 4, !tbaa !25
  store i32 %7, ptr %6, align 4, !tbaa !368
  ret void
}

; Function Attrs: mustprogress nounwind uwtable
define linkonce_odr void @_ZNSt13__atomic_baseIPN5folly10hazptr_objISt6atomicEEEC2ES4_(ptr noundef nonnull align 8 dereferenceable(8) %0, ptr noundef %1) unnamed_addr #2 comdat align 2 {
  %3 = alloca ptr, align 8
  %4 = alloca ptr, align 8
  store ptr %0, ptr %3, align 8, !tbaa !413
  store ptr %1, ptr %4, align 8, !tbaa !405
  %5 = load ptr, ptr %3, align 8
  %6 = getelementptr inbounds nuw %"struct.std::__atomic_base.49", ptr %5, i32 0, i32 0
  %7 = load ptr, ptr %4, align 8, !tbaa !405
  store ptr %7, ptr %6, align 8, !tbaa !415
  ret void
}

; Function Attrs: mustprogress nounwind uwtable
define linkonce_odr void @_ZNSt13__atomic_baseIbEC2Eb(ptr noundef nonnull align 1 dereferenceable(1) %0, i1 noundef zeroext %1) unnamed_addr #2 comdat align 2 {
  %3 = alloca ptr, align 8
  %4 = alloca i8, align 1
  store ptr %0, ptr %3, align 8, !tbaa !409
  %5 = zext i1 %1 to i8
  store i8 %5, ptr %4, align 1, !tbaa !70
  %6 = load ptr, ptr %3, align 8
  %7 = getelementptr inbounds nuw %"struct.std::__atomic_base.51", ptr %6, i32 0, i32 0
  %8 = load i8, ptr %4, align 1, !tbaa !70, !range !72, !noundef !73
  %9 = trunc i8 %8 to i1
  %10 = zext i1 %9 to i8
  store i8 %10, ptr %7, align 1, !tbaa !411
  ret void
}

; Function Attrs: mustprogress nounwind uwtable
define linkonce_odr void @_ZNSt13__atomic_baseIiEC2Ei(ptr noundef nonnull align 4 dereferenceable(4) %0, i32 noundef %1) unnamed_addr #2 comdat align 2 {
  %3 = alloca ptr, align 8
  %4 = alloca i32, align 4
  store ptr %0, ptr %3, align 8, !tbaa !373
  store i32 %1, ptr %4, align 4, !tbaa !25
  %5 = load ptr, ptr %3, align 8
  %6 = getelementptr inbounds nuw %"struct.std::__atomic_base.47", ptr %5, i32 0, i32 0
  %7 = load i32, ptr %4, align 4, !tbaa !25
  store i32 %7, ptr %6, align 4, !tbaa !407
  ret void
}

; Function Attrs: mustprogress nounwind uwtable
define linkonce_odr void @_ZNSt6atomicIjEC2Ej(ptr noundef nonnull align 4 dereferenceable(4) %0, i32 noundef %1) unnamed_addr #2 comdat align 2 {
  %3 = alloca ptr, align 8
  %4 = alloca i32, align 4
  store ptr %0, ptr %3, align 8, !tbaa !93
  store i32 %1, ptr %4, align 4, !tbaa !25
  %5 = load ptr, ptr %3, align 8
  %6 = load i32, ptr %4, align 4, !tbaa !25
  call void @_ZNSt13__atomic_baseIjEC2Ej(ptr noundef nonnull align 4 dereferenceable(4) %5, i32 noundef %6) #12
  ret void
}

; Function Attrs: mustprogress nounwind uwtable
define linkonce_odr void @_ZNSt13__atomic_baseImEC2Em(ptr noundef nonnull align 8 dereferenceable(8) %0, i64 noundef %1) unnamed_addr #2 comdat align 2 {
  %3 = alloca ptr, align 8
  %4 = alloca i64, align 8
  store ptr %0, ptr %3, align 8, !tbaa !82
  store i64 %1, ptr %4, align 8, !tbaa !69
  %5 = load ptr, ptr %3, align 8
  %6 = getelementptr inbounds nuw %"struct.std::__atomic_base.10", ptr %5, i32 0, i32 0
  %7 = load i64, ptr %4, align 8, !tbaa !69
  store i64 %7, ptr %6, align 8, !tbaa !421
  ret void
}

; Function Attrs: mustprogress nounwind uwtable
define linkonce_odr void @_ZNSt13__atomic_baseIPN5folly14RequestContext5State8CombinedEEC2ES4_(ptr noundef nonnull align 8 dereferenceable(8) %0, ptr noundef %1) unnamed_addr #2 comdat align 2 {
  %3 = alloca ptr, align 8
  %4 = alloca ptr, align 8
  store ptr %0, ptr %3, align 8, !tbaa !417
  store ptr %1, ptr %4, align 8, !tbaa !393
  %5 = load ptr, ptr %3, align 8
  %6 = getelementptr inbounds nuw %"struct.std::__atomic_base.53", ptr %5, i32 0, i32 0
  %7 = load ptr, ptr %4, align 8, !tbaa !393
  store ptr %7, ptr %6, align 8, !tbaa !419
  ret void
}

; Function Attrs: mustprogress nounwind uwtable
define linkonce_odr void @_ZNSt6atomicIPN5folly10hazptr_objIS_EEEC2ES3_(ptr noundef nonnull align 8 dereferenceable(8) %0, ptr noundef %1) unnamed_addr #2 comdat align 2 {
  %3 = alloca ptr, align 8
  %4 = alloca ptr, align 8
  store ptr %0, ptr %3, align 8, !tbaa !403
  store ptr %1, ptr %4, align 8, !tbaa !405
  %5 = load ptr, ptr %3, align 8
  %6 = getelementptr inbounds nuw %"struct.std::atomic.48", ptr %5, i32 0, i32 0
  %7 = load ptr, ptr %4, align 8, !tbaa !405
  call void @_ZNSt13__atomic_baseIPN5folly10hazptr_objISt6atomicEEEC2ES4_(ptr noundef nonnull align 8 dereferenceable(8) %6, ptr noundef %7) #12
  ret void
}

; Function Attrs: mustprogress nounwind uwtable
define linkonce_odr void @_ZNSt6atomicIbEC2Eb(ptr noundef nonnull align 1 dereferenceable(1) %0, i1 noundef zeroext %1) unnamed_addr #2 comdat align 2 {
  %3 = alloca ptr, align 8
  %4 = alloca i8, align 1
  store ptr %0, ptr %3, align 8, !tbaa !401
  %5 = zext i1 %1 to i8
  store i8 %5, ptr %4, align 1, !tbaa !70
  %6 = load ptr, ptr %3, align 8
  %7 = getelementptr inbounds nuw %"struct.std::atomic.50", ptr %6, i32 0, i32 0
  %8 = load i8, ptr %4, align 1, !tbaa !70, !range !72, !noundef !73
  %9 = trunc i8 %8 to i1
  call void @_ZNSt13__atomic_baseIbEC2Eb(ptr noundef nonnull align 1 dereferenceable(1) %7, i1 noundef zeroext %9) #12
  ret void
}

; Function Attrs: mustprogress nounwind uwtable
define linkonce_odr void @_ZNSt6atomicIiEC2Ei(ptr noundef nonnull align 4 dereferenceable(4) %0, i32 noundef %1) unnamed_addr #2 comdat align 2 {
  %3 = alloca ptr, align 8
  %4 = alloca i32, align 4
  store ptr %0, ptr %3, align 8, !tbaa !399
  store i32 %1, ptr %4, align 4, !tbaa !25
  %5 = load ptr, ptr %3, align 8
  %6 = load i32, ptr %4, align 4, !tbaa !25
  call void @_ZNSt13__atomic_baseIiEC2Ei(ptr noundef nonnull align 4 dereferenceable(4) %5, i32 noundef %6) #12
  ret void
}

; Function Attrs: mustprogress nounwind uwtable
define linkonce_odr void @_ZN5folly13hazptr_detail21shared_head_tail_listINS_10hazptr_objISt6atomicEES3_EC2Ev(ptr noundef nonnull align 8 dereferenceable(16) %0) unnamed_addr #2 comdat align 2 {
  %2 = alloca ptr, align 8
  store ptr %0, ptr %2, align 8, !tbaa !397
  %3 = load ptr, ptr %2, align 8
  %4 = getelementptr inbounds nuw %"class.folly::hazptr_detail::shared_head_tail_list", ptr %3, i32 0, i32 0
  call void @_ZNSt6atomicIPN5folly10hazptr_objIS_EEEC2ES3_(ptr noundef nonnull align 8 dereferenceable(8) %4, ptr noundef null) #12
  %5 = getelementptr inbounds nuw %"class.folly::hazptr_detail::shared_head_tail_list", ptr %3, i32 0, i32 1
  call void @_ZNSt6atomicIPN5folly10hazptr_objIS_EEEC2ES3_(ptr noundef nonnull align 8 dereferenceable(8) %5, ptr noundef null) #12
  ret void
}

; Function Attrs: mustprogress nounwind uwtable
define available_externally void @_ZN5folly15SharedMutexImplILb0EvSt6atomicNS_24SharedMutexPolicyDefaultEEC2Ev(ptr noundef nonnull align 4 dereferenceable(4) %0) unnamed_addr #2 align 2 {
  %2 = alloca ptr, align 8
  store ptr %0, ptr %2, align 8, !tbaa !54
  %3 = load ptr, ptr %2, align 8
  %4 = getelementptr inbounds nuw %"class.folly::SharedMutexImpl", ptr %3, i32 0, i32 0
  call void @_ZNSt6atomicIjEC2Ej(ptr noundef nonnull align 4 dereferenceable(4) %4, i32 noundef 0) #12
  ret void
}

; Function Attrs: mustprogress nounwind uwtable
define linkonce_odr void @_ZNSt6atomicImEC2Em(ptr noundef nonnull align 8 dereferenceable(8) %0, i64 noundef %1) unnamed_addr #2 comdat align 2 {
  %3 = alloca ptr, align 8
  %4 = alloca i64, align 8
  store ptr %0, ptr %3, align 8, !tbaa !204
  store i64 %1, ptr %4, align 8, !tbaa !69
  %5 = load ptr, ptr %3, align 8
  %6 = load i64, ptr %4, align 8, !tbaa !69
  call void @_ZNSt13__atomic_baseImEC2Em(ptr noundef nonnull align 8 dereferenceable(8) %5, i64 noundef %6) #12
  ret void
}

; Function Attrs: mustprogress nounwind uwtable
define linkonce_odr void @_ZNSt6atomicIPN5folly14RequestContext5State8CombinedEEC2ES4_(ptr noundef nonnull align 8 dereferenceable(8) %0, ptr noundef %1) unnamed_addr #2 comdat align 2 {
  %3 = alloca ptr, align 8
  %4 = alloca ptr, align 8
  store ptr %0, ptr %3, align 8, !tbaa !391
  store ptr %1, ptr %4, align 8, !tbaa !393
  %5 = load ptr, ptr %3, align 8
  %6 = getelementptr inbounds nuw %"struct.std::atomic.52", ptr %5, i32 0, i32 0
  %7 = load ptr, ptr %4, align 8, !tbaa !393
  call void @_ZNSt13__atomic_baseIPN5folly14RequestContext5State8CombinedEEC2ES4_(ptr noundef nonnull align 8 dereferenceable(8) %6, ptr noundef %7) #12
  ret void
}

; Function Attrs: mustprogress nounwind uwtable
define linkonce_odr void @_ZN5folly17hazptr_obj_cohortISt6atomicEC2Ev(ptr noundef nonnull align 8 dereferenceable(32) %0) unnamed_addr #2 comdat align 2 {
  %2 = alloca ptr, align 8
  store ptr %0, ptr %2, align 8, !tbaa !389
  %3 = load ptr, ptr %2, align 8
  %4 = getelementptr inbounds nuw %"class.folly::hazptr_obj_cohort", ptr %3, i32 0, i32 0
  call void @_ZN5folly13hazptr_detail21shared_head_tail_listINS_10hazptr_objISt6atomicEES3_EC2Ev(ptr noundef nonnull align 8 dereferenceable(16) %4) #12
  %5 = getelementptr inbounds nuw %"class.folly::hazptr_obj_cohort", ptr %3, i32 0, i32 1
  call void @_ZNSt6atomicIiEC2Ei(ptr noundef nonnull align 4 dereferenceable(4) %5, i32 noundef 0) #12
  %6 = getelementptr inbounds nuw %"class.folly::hazptr_obj_cohort", ptr %3, i32 0, i32 2
  call void @_ZNSt6atomicIbEC2Eb(ptr noundef nonnull align 1 dereferenceable(1) %6, i1 noundef zeroext true) #12
  %7 = getelementptr inbounds nuw %"class.folly::hazptr_obj_cohort", ptr %3, i32 0, i32 3
  call void @_ZNSt6atomicIbEC2Eb(ptr noundef nonnull align 1 dereferenceable(1) %7, i1 noundef zeroext false) #12
  %8 = getelementptr inbounds nuw %"class.folly::hazptr_obj_cohort", ptr %3, i32 0, i32 4
  call void @_ZNSt6atomicIPN5folly10hazptr_objIS_EEEC2ES3_(ptr noundef nonnull align 8 dereferenceable(8) %8, ptr noundef null) #12
  ret void
}

; Function Attrs: mustprogress uwtable
define void @_ZN5folly14RequestContext5StateC2Ev(ptr noundef nonnull align 8 dereferenceable(52) %0) unnamed_addr #0 align 2 personality ptr @__gxx_personality_v0 {
  %2 = alloca ptr, align 8
  %3 = alloca ptr, align 8
  %4 = alloca i32, align 4
  store ptr %0, ptr %2, align 8, !tbaa !387
  %5 = load ptr, ptr %2, align 8
  %6 = getelementptr inbounds nuw %"struct.folly::RequestContext::State", ptr %5, i32 0, i32 0
  call void @_ZN5folly17hazptr_obj_cohortISt6atomicEC2Ev(ptr noundef nonnull align 8 dereferenceable(32) %6) #12
  %7 = getelementptr inbounds nuw %"struct.folly::RequestContext::State", ptr %5, i32 0, i32 1
  call void @_ZNSt6atomicIPN5folly14RequestContext5State8CombinedEEC2ES4_(ptr noundef nonnull align 8 dereferenceable(8) %7, ptr noundef null) #12
  %8 = getelementptr inbounds nuw %"struct.folly::RequestContext::State", ptr %5, i32 0, i32 2
  %9 = invoke noundef i64 @_ZN5folly20processLocalUniqueIdEv()
          to label %10 unwind label %12

10:                                               ; preds = %1
  call void @_ZNSt6atomicImEC2Em(ptr noundef nonnull align 8 dereferenceable(8) %8, i64 noundef %9) #12
  %11 = getelementptr inbounds nuw %"struct.folly::RequestContext::State", ptr %5, i32 0, i32 3
  call void @_ZN5folly15SharedMutexImplILb0EvSt6atomicNS_24SharedMutexPolicyDefaultEEC2Ev(ptr noundef nonnull align 4 dereferenceable(4) %11) #12
  ret void

12:                                               ; preds = %1
  %13 = landingpad { ptr, i32 }
          cleanup
  %14 = extractvalue { ptr, i32 } %13, 0
  store ptr %14, ptr %3, align 8
  %15 = extractvalue { ptr, i32 } %13, 1
  store i32 %15, ptr %4, align 4
  call void @_ZN5folly17hazptr_obj_cohortISt6atomicED2Ev(ptr noundef nonnull align 8 dereferenceable(32) %6) #12
  br label %16

16:                                               ; preds = %12
  %17 = load ptr, ptr %3, align 8
  %18 = load i32, ptr %4, align 4
  %19 = insertvalue { ptr, i32 } poison, ptr %17, 0
  %20 = insertvalue { ptr, i32 } %19, i32 %18, 1
  resume { ptr, i32 } %20
}