; Function Attrs: mustprogress uwtable
define void @_ZN5folly14RequestContext5StateC2Ev(ptr noundef nonnull align 8 dereferenceable(52) initializes((0, 22), (24, 40)) %0) unnamed_addr #7 align 2 personality ptr @__gxx_personality_v0 {
  %2 = getelementptr inbounds nuw i8, ptr %0, i64 20
  tail call void @llvm.memset.p0.i64(ptr noundef nonnull align 8 dereferenceable(32) %0, i8 0, i64 20, i1 false)
  store i8 1, ptr %2, align 4, !tbaa !152
  %3 = getelementptr inbounds nuw i8, ptr %0, i64 21
  store i8 0, ptr %3, align 1, !tbaa !152
  %4 = getelementptr inbounds nuw i8, ptr %0, i64 24
  tail call void @llvm.memset.p0.i64(ptr noundef nonnull align 8 dereferenceable(16) %4, i8 0, i64 16, i1 false)
  %5 = invoke noundef i64 @_ZN5folly20processLocalUniqueIdEv()
          to label %6 unwind label %9

6:                                                ; preds = %1
  %7 = getelementptr inbounds nuw i8, ptr %0, i64 40
  store i64 %5, ptr %7, align 8, !tbaa !154
  %8 = getelementptr inbounds nuw i8, ptr %0, i64 48
  store i32 0, ptr %8, align 8, !tbaa !156
  ret void

9:                                                ; preds = %1
  %10 = landingpad { ptr, i32 }
          cleanup
  tail call void @_ZN5folly17hazptr_obj_cohortISt6atomicED2Ev(ptr noundef nonnull align 8 dereferenceable(32) %0) #10
  resume { ptr, i32 } %10
}